
GccApplication1.elf:     file format elf32-avr

Sections:
Idx Name          Size      VMA       LMA       File off  Algn
  0 .text         000003f8  00000000  00000000  00000094  2**1
                  CONTENTS, ALLOC, LOAD, READONLY, CODE
  1 .data         00000014  00800060  000003f8  0000048c  2**0
                  CONTENTS, ALLOC, LOAD, DATA
  2 .bss          0000000a  00800074  00800074  000004a0  2**0
                  ALLOC
  3 .comment      00000030  00000000  00000000  000004a0  2**0
                  CONTENTS, READONLY
  4 .note.gnu.avr.deviceinfo 0000003c  00000000  00000000  000004d0  2**2
                  CONTENTS, READONLY
  5 .debug_aranges 00000180  00000000  00000000  0000050c  2**0
                  CONTENTS, READONLY, DEBUGGING
  6 .debug_info   000015eb  00000000  00000000  0000068c  2**0
                  CONTENTS, READONLY, DEBUGGING
  7 .debug_abbrev 00000ac4  00000000  00000000  00001c77  2**0
                  CONTENTS, READONLY, DEBUGGING
  8 .debug_line   00000b22  00000000  00000000  0000273b  2**0
                  CONTENTS, READONLY, DEBUGGING
  9 .debug_frame  00000460  00000000  00000000  00003260  2**2
                  CONTENTS, READONLY, DEBUGGING
 10 .debug_str    000008cf  00000000  00000000  000036c0  2**0
                  CONTENTS, READONLY, DEBUGGING
 11 .debug_loc    00001193  00000000  00000000  00003f8f  2**0
                  CONTENTS, READONLY, DEBUGGING
 12 .debug_ranges 000001a8  00000000  00000000  00005122  2**0
                  CONTENTS, READONLY, DEBUGGING

Disassembly of section .text:

00000000 <__vectors>:
   0:	0c 94 2a 00 	jmp	0x54	; 0x54 <__ctors_end>
   4:	0c 94 2d 01 	jmp	0x25a	; 0x25a <__vector_1>
   8:	0c 94 56 01 	jmp	0x2ac	; 0x2ac <__vector_2>
   c:	0c 94 7f 01 	jmp	0x2fe	; 0x2fe <__vector_3>
  10:	0c 94 47 00 	jmp	0x8e	; 0x8e <__bad_interrupt>
  14:	0c 94 47 00 	jmp	0x8e	; 0x8e <__bad_interrupt>
  18:	0c 94 47 00 	jmp	0x8e	; 0x8e <__bad_interrupt>
  1c:	0c 94 47 00 	jmp	0x8e	; 0x8e <__bad_interrupt>
  20:	0c 94 47 00 	jmp	0x8e	; 0x8e <__bad_interrupt>
  24:	0c 94 47 00 	jmp	0x8e	; 0x8e <__bad_interrupt>
  28:	0c 94 d1 01 	jmp	0x3a2	; 0x3a2 <__vector_10>
  2c:	0c 94 a8 01 	jmp	0x350	; 0x350 <__vector_11>
  30:	0c 94 47 00 	jmp	0x8e	; 0x8e <__bad_interrupt>
  34:	0c 94 47 00 	jmp	0x8e	; 0x8e <__bad_interrupt>
  38:	0c 94 47 00 	jmp	0x8e	; 0x8e <__bad_interrupt>
  3c:	0c 94 47 00 	jmp	0x8e	; 0x8e <__bad_interrupt>
  40:	0c 94 47 00 	jmp	0x8e	; 0x8e <__bad_interrupt>
  44:	0c 94 47 00 	jmp	0x8e	; 0x8e <__bad_interrupt>
  48:	0c 94 47 00 	jmp	0x8e	; 0x8e <__bad_interrupt>
  4c:	0c 94 47 00 	jmp	0x8e	; 0x8e <__bad_interrupt>
  50:	0c 94 47 00 	jmp	0x8e	; 0x8e <__bad_interrupt>

00000054 <__ctors_end>:
  54:	11 24       	eor	r1, r1
  56:	1f be       	out	0x3f, r1	; 63
  58:	cf e5       	ldi	r28, 0x5F	; 95
  5a:	d8 e0       	ldi	r29, 0x08	; 8
  5c:	de bf       	out	0x3e, r29	; 62
  5e:	cd bf       	out	0x3d, r28	; 61

00000060 <__do_copy_data>:
  60:	10 e0       	ldi	r17, 0x00	; 0
  62:	a0 e6       	ldi	r26, 0x60	; 96
  64:	b0 e0       	ldi	r27, 0x00	; 0
  66:	e8 ef       	ldi	r30, 0xF8	; 248
  68:	f3 e0       	ldi	r31, 0x03	; 3
  6a:	02 c0       	rjmp	.+4      	; 0x70 <__do_copy_data+0x10>
  6c:	05 90       	lpm	r0, Z+
  6e:	0d 92       	st	X+, r0
  70:	a4 37       	cpi	r26, 0x74	; 116
  72:	b1 07       	cpc	r27, r17
  74:	d9 f7       	brne	.-10     	; 0x6c <__do_copy_data+0xc>

00000076 <__do_clear_bss>:
  76:	20 e0       	ldi	r18, 0x00	; 0
  78:	a4 e7       	ldi	r26, 0x74	; 116
  7a:	b0 e0       	ldi	r27, 0x00	; 0
  7c:	01 c0       	rjmp	.+2      	; 0x80 <.do_clear_bss_start>

0000007e <.do_clear_bss_loop>:
  7e:	1d 92       	st	X+, r1

00000080 <.do_clear_bss_start>:
  80:	ae 37       	cpi	r26, 0x7E	; 126
  82:	b2 07       	cpc	r27, r18
  84:	e1 f7       	brne	.-8      	; 0x7e <.do_clear_bss_loop>
  86:	0e 94 91 00 	call	0x122	; 0x122 <main>
  8a:	0c 94 fa 01 	jmp	0x3f4	; 0x3f4 <_exit>

0000008e <__bad_interrupt>:
  8e:	0c 94 00 00 	jmp	0	; 0x0 <__vectors>

00000092 <Led_Init>:
			.pin_direction = GPIO_DIRECTION_OUTPUT
		};
		ret = gpio_write_logic(&led_1, GPIO_LOW);
	}
	return ret;
}
  92:	cf 93       	push	r28
  94:	df 93       	push	r29
  96:	00 d0       	rcall	.+0      	; 0x98 <Led_Init+0x6>
  98:	00 d0       	rcall	.+0      	; 0x9a <Led_Init+0x8>
  9a:	cd b7       	in	r28, 0x3d	; 61
  9c:	de b7       	in	r29, 0x3e	; 62
  9e:	00 97       	sbiw	r24, 0x00	; 0
  a0:	91 f0       	breq	.+36     	; 0xc6 <Led_Init+0x34>
  a2:	fc 01       	movw	r30, r24
  a4:	80 81       	ld	r24, Z
  a6:	89 83       	std	Y+1, r24	; 0x01
  a8:	81 81       	ldd	r24, Z+1	; 0x01
  aa:	8a 83       	std	Y+2, r24	; 0x02
  ac:	1b 82       	std	Y+3, r1	; 0x03
  ae:	82 81       	ldd	r24, Z+2	; 0x02
  b0:	8c 83       	std	Y+4, r24	; 0x04
  b2:	ce 01       	movw	r24, r28
  b4:	01 96       	adiw	r24, 0x01	; 1
  b6:	0e 94 96 00 	call	0x12c	; 0x12c <gpio_pin_dirction_init>
  ba:	60 e0       	ldi	r22, 0x00	; 0
  bc:	ce 01       	movw	r24, r28
  be:	01 96       	adiw	r24, 0x01	; 1
  c0:	0e 94 d0 00 	call	0x1a0	; 0x1a0 <gpio_write_logic>
  c4:	01 c0       	rjmp	.+2      	; 0xc8 <Led_Init+0x36>
  c6:	80 e0       	ldi	r24, 0x00	; 0
  c8:	0f 90       	pop	r0
  ca:	0f 90       	pop	r0
  cc:	0f 90       	pop	r0
  ce:	0f 90       	pop	r0
  d0:	df 91       	pop	r29
  d2:	cf 91       	pop	r28
  d4:	08 95       	ret

000000d6 <Led_Toggle>:
 * @return Status of the function
 *          (E_OK) : The function done successfully
 *          (E_NOT_OK) : The function has issue to perform this action
 */
Std_ReturnType Led_Toggle(const ST_led_t* led)
{
  d6:	cf 93       	push	r28
  d8:	df 93       	push	r29
  da:	00 d0       	rcall	.+0      	; 0xdc <Led_Toggle+0x6>
  dc:	00 d0       	rcall	.+0      	; 0xde <Led_Toggle+0x8>
  de:	cd b7       	in	r28, 0x3d	; 61
  e0:	de b7       	in	r29, 0x3e	; 62
	Std_ReturnType ret = E_OK;
	if(led == NULL)
  e2:	00 97       	sbiw	r24, 0x00	; 0
  e4:	69 f0       	breq	.+26     	; 0x100 <Led_Toggle+0x2a>
  e6:	fc 01       	movw	r30, r24
	{
		ret = E_NOT_OK;
	}
	else
	{
		ST_pinCofig_t led_1 =
  e8:	80 81       	ld	r24, Z
  ea:	89 83       	std	Y+1, r24	; 0x01
  ec:	81 81       	ldd	r24, Z+1	; 0x01
  ee:	8a 83       	std	Y+2, r24	; 0x02
  f0:	1b 82       	std	Y+3, r1	; 0x03
  f2:	82 81       	ldd	r24, Z+2	; 0x02
  f4:	8c 83       	std	Y+4, r24	; 0x04
			.port = led->port,
			.pin = led->pin,
			.pin_logic = led->status,
			.pin_direction = GPIO_DIRECTION_OUTPUT
		};
		ret = gpio_pin_toggle(&led_1);
  f6:	ce 01       	movw	r24, r28
  f8:	01 96       	adiw	r24, 0x01	; 1
  fa:	0e 94 0f 01 	call	0x21e	; 0x21e <gpio_pin_toggle>
  fe:	01 c0       	rjmp	.+2      	; 0x102 <Led_Toggle+0x2c>
Std_ReturnType Led_Toggle(const ST_led_t* led)
{
	Std_ReturnType ret = E_OK;
	if(led == NULL)
	{
		ret = E_NOT_OK;
 100:	80 e0       	ldi	r24, 0x00	; 0
			.pin_direction = GPIO_DIRECTION_OUTPUT
		};
		ret = gpio_pin_toggle(&led_1);
	}
	return ret;
}
 102:	0f 90       	pop	r0
 104:	0f 90       	pop	r0
 106:	0f 90       	pop	r0
 108:	0f 90       	pop	r0
 10a:	df 91       	pop	r29
 10c:	cf 91       	pop	r28
 10e:	08 95       	ret

00000110 <ledTest>:
	.status = LED_OFF
};

void ledTest()
{
	Led_Init(&led1);
 110:	80 e6       	ldi	r24, 0x60	; 96
 112:	90 e0       	ldi	r25, 0x00	; 0
 114:	0e 94 49 00 	call	0x92	; 0x92 <Led_Init>
	while(1)
	{
		//Led_Turn_Off(&led1);
		//Led_Turn_On(&led1);
		Led_Toggle(&led1);
 118:	80 e6       	ldi	r24, 0x60	; 96
 11a:	90 e0       	ldi	r25, 0x00	; 0
 11c:	0e 94 6b 00 	call	0xd6	; 0xd6 <Led_Toggle>
 120:	fb cf       	rjmp	.-10     	; 0x118 <ledTest+0x8>

00000122 <main>:
#include "APPLICATION/APP.h"


int main(void)
{
	ledTest();
 122:	0e 94 88 00 	call	0x110	; 0x110 <ledTest>
}
 126:	80 e0       	ldi	r24, 0x00	; 0
 128:	90 e0       	ldi	r25, 0x00	; 0
 12a:	08 95       	ret

0000012c <gpio_pin_dirction_init>:
	else
	{
		*logic = READ_BIT(*pin_regster[pinObject->port], pinObject->pin);
	}
	return ret;
}
 12c:	fc 01       	movw	r30, r24
 12e:	89 2b       	or	r24, r25
 130:	99 f1       	breq	.+102    	; 0x198 <gpio_pin_dirction_init+0x6c>
 132:	82 81       	ldd	r24, Z+2	; 0x02
 134:	88 23       	and	r24, r24
 136:	19 f0       	breq	.+6      	; 0x13e <gpio_pin_dirction_init+0x12>
 138:	81 30       	cpi	r24, 0x01	; 1
 13a:	b9 f0       	breq	.+46     	; 0x16a <gpio_pin_dirction_init+0x3e>
 13c:	2f c0       	rjmp	.+94     	; 0x19c <gpio_pin_dirction_init+0x70>
 13e:	a0 81       	ld	r26, Z
 140:	b0 e0       	ldi	r27, 0x00	; 0
 142:	aa 0f       	add	r26, r26
 144:	bb 1f       	adc	r27, r27
 146:	a5 59       	subi	r26, 0x95	; 149
 148:	bf 4f       	sbci	r27, 0xFF	; 255
 14a:	0d 90       	ld	r0, X+
 14c:	bc 91       	ld	r27, X
 14e:	a0 2d       	mov	r26, r0
 150:	2c 91       	ld	r18, X
 152:	81 e0       	ldi	r24, 0x01	; 1
 154:	90 e0       	ldi	r25, 0x00	; 0
 156:	01 80       	ldd	r0, Z+1	; 0x01
 158:	02 c0       	rjmp	.+4      	; 0x15e <gpio_pin_dirction_init+0x32>
 15a:	88 0f       	add	r24, r24
 15c:	99 1f       	adc	r25, r25
 15e:	0a 94       	dec	r0
 160:	e2 f7       	brpl	.-8      	; 0x15a <gpio_pin_dirction_init+0x2e>
 162:	82 2b       	or	r24, r18
 164:	8c 93       	st	X, r24
 166:	81 e0       	ldi	r24, 0x01	; 1
 168:	08 95       	ret
 16a:	a0 81       	ld	r26, Z
 16c:	b0 e0       	ldi	r27, 0x00	; 0
 16e:	aa 0f       	add	r26, r26
 170:	bb 1f       	adc	r27, r27
 172:	a5 59       	subi	r26, 0x95	; 149
 174:	bf 4f       	sbci	r27, 0xFF	; 255
 176:	0d 90       	ld	r0, X+
 178:	bc 91       	ld	r27, X
 17a:	a0 2d       	mov	r26, r0
 17c:	2c 91       	ld	r18, X
 17e:	81 e0       	ldi	r24, 0x01	; 1
 180:	90 e0       	ldi	r25, 0x00	; 0
 182:	01 80       	ldd	r0, Z+1	; 0x01
 184:	02 c0       	rjmp	.+4      	; 0x18a <gpio_pin_dirction_init+0x5e>
 186:	88 0f       	add	r24, r24
 188:	99 1f       	adc	r25, r25
 18a:	0a 94       	dec	r0
 18c:	e2 f7       	brpl	.-8      	; 0x186 <gpio_pin_dirction_init+0x5a>
 18e:	80 95       	com	r24
 190:	82 23       	and	r24, r18
 192:	8c 93       	st	X, r24
 194:	81 e0       	ldi	r24, 0x01	; 1
 196:	08 95       	ret
 198:	80 e0       	ldi	r24, 0x00	; 0
 19a:	08 95       	ret
 19c:	80 e0       	ldi	r24, 0x00	; 0
 19e:	08 95       	ret

000001a0 <gpio_write_logic>:
 1a0:	00 97       	sbiw	r24, 0x00	; 0
 1a2:	c9 f1       	breq	.+114    	; 0x216 <gpio_write_logic+0x76>
 1a4:	66 23       	and	r22, r22
 1a6:	e1 f0       	breq	.+56     	; 0x1e0 <gpio_write_logic+0x40>
 1a8:	61 30       	cpi	r22, 0x01	; 1
 1aa:	b9 f5       	brne	.+110    	; 0x21a <gpio_write_logic+0x7a>
 1ac:	dc 01       	movw	r26, r24
 1ae:	ec 91       	ld	r30, X
 1b0:	f0 e0       	ldi	r31, 0x00	; 0
 1b2:	ee 0f       	add	r30, r30
 1b4:	ff 1f       	adc	r31, r31
 1b6:	ed 59       	subi	r30, 0x9D	; 157
 1b8:	ff 4f       	sbci	r31, 0xFF	; 255
 1ba:	01 90       	ld	r0, Z+
 1bc:	f0 81       	ld	r31, Z
 1be:	e0 2d       	mov	r30, r0
 1c0:	40 81       	ld	r20, Z
 1c2:	21 e0       	ldi	r18, 0x01	; 1
 1c4:	30 e0       	ldi	r19, 0x00	; 0
 1c6:	b9 01       	movw	r22, r18
 1c8:	11 96       	adiw	r26, 0x01	; 1
 1ca:	0c 90       	ld	r0, X
 1cc:	02 c0       	rjmp	.+4      	; 0x1d2 <gpio_write_logic+0x32>
 1ce:	66 0f       	add	r22, r22
 1d0:	77 1f       	adc	r23, r23
 1d2:	0a 94       	dec	r0
 1d4:	e2 f7       	brpl	.-8      	; 0x1ce <gpio_write_logic+0x2e>
 1d6:	cb 01       	movw	r24, r22
 1d8:	84 2b       	or	r24, r20
 1da:	80 83       	st	Z, r24
 1dc:	81 e0       	ldi	r24, 0x01	; 1
 1de:	08 95       	ret
 1e0:	dc 01       	movw	r26, r24
 1e2:	ec 91       	ld	r30, X
 1e4:	f0 e0       	ldi	r31, 0x00	; 0
 1e6:	ee 0f       	add	r30, r30
 1e8:	ff 1f       	adc	r31, r31
 1ea:	ed 59       	subi	r30, 0x9D	; 157
 1ec:	ff 4f       	sbci	r31, 0xFF	; 255
 1ee:	01 90       	ld	r0, Z+
 1f0:	f0 81       	ld	r31, Z
 1f2:	e0 2d       	mov	r30, r0
 1f4:	40 81       	ld	r20, Z
 1f6:	21 e0       	ldi	r18, 0x01	; 1
 1f8:	30 e0       	ldi	r19, 0x00	; 0
 1fa:	b9 01       	movw	r22, r18
 1fc:	11 96       	adiw	r26, 0x01	; 1
 1fe:	0c 90       	ld	r0, X
 200:	02 c0       	rjmp	.+4      	; 0x206 <gpio_write_logic+0x66>
 202:	66 0f       	add	r22, r22
 204:	77 1f       	adc	r23, r23
 206:	0a 94       	dec	r0
 208:	e2 f7       	brpl	.-8      	; 0x202 <gpio_write_logic+0x62>
 20a:	cb 01       	movw	r24, r22
 20c:	80 95       	com	r24
 20e:	84 23       	and	r24, r20
 210:	80 83       	st	Z, r24
 212:	81 e0       	ldi	r24, 0x01	; 1
 214:	08 95       	ret
 216:	80 e0       	ldi	r24, 0x00	; 0
 218:	08 95       	ret
 21a:	80 e0       	ldi	r24, 0x00	; 0
 21c:	08 95       	ret

0000021e <gpio_pin_toggle>:
 *          (E_NOT_OK) : The function has issue to perform this action
 */
Std_ReturnType gpio_pin_toggle(const ST_pinCofig_t* pinObject)
{
	Std_ReturnType ret = E_OK;
	if(pinObject == NULL)
 21e:	00 97       	sbiw	r24, 0x00	; 0
 220:	d1 f0       	breq	.+52     	; 0x256 <gpio_pin_toggle+0x38>
	{
		ret = E_NOT_OK;
	}
	else
	{
		TOGGLE_BIT(*port_regster[pinObject->port], pinObject->pin);		
 222:	dc 01       	movw	r26, r24
 224:	ec 91       	ld	r30, X
 226:	f0 e0       	ldi	r31, 0x00	; 0
 228:	ee 0f       	add	r30, r30
 22a:	ff 1f       	adc	r31, r31
 22c:	ed 59       	subi	r30, 0x9D	; 157
 22e:	ff 4f       	sbci	r31, 0xFF	; 255
 230:	01 90       	ld	r0, Z+
 232:	f0 81       	ld	r31, Z
 234:	e0 2d       	mov	r30, r0
 236:	40 81       	ld	r20, Z
 238:	21 e0       	ldi	r18, 0x01	; 1
 23a:	30 e0       	ldi	r19, 0x00	; 0
 23c:	b9 01       	movw	r22, r18
 23e:	11 96       	adiw	r26, 0x01	; 1
 240:	0c 90       	ld	r0, X
 242:	02 c0       	rjmp	.+4      	; 0x248 <gpio_pin_toggle+0x2a>
 244:	66 0f       	add	r22, r22
 246:	77 1f       	adc	r23, r23
 248:	0a 94       	dec	r0
 24a:	e2 f7       	brpl	.-8      	; 0x244 <gpio_pin_toggle+0x26>
 24c:	cb 01       	movw	r24, r22
 24e:	84 27       	eor	r24, r20
 250:	80 83       	st	Z, r24
 *          (E_OK) : The function done successfully
 *          (E_NOT_OK) : The function has issue to perform this action
 */
Std_ReturnType gpio_pin_toggle(const ST_pinCofig_t* pinObject)
{
	Std_ReturnType ret = E_OK;
 252:	81 e0       	ldi	r24, 0x01	; 1
 254:	08 95       	ret
	if(pinObject == NULL)
	{
		ret = E_NOT_OK;
 256:	80 e0       	ldi	r24, 0x00	; 0
	else
	{
		TOGGLE_BIT(*port_regster[pinObject->port], pinObject->pin);		
	}
	return ret;
}
 258:	08 95       	ret

0000025a <__vector_1>:
	}
}


ISR(INT0_vect)
{
 25a:	1f 92       	push	r1
 25c:	0f 92       	push	r0
 25e:	0f b6       	in	r0, 0x3f	; 63
 260:	0f 92       	push	r0
 262:	11 24       	eor	r1, r1
 264:	2f 93       	push	r18
 266:	3f 93       	push	r19
 268:	4f 93       	push	r20
 26a:	5f 93       	push	r21
 26c:	6f 93       	push	r22
 26e:	7f 93       	push	r23
 270:	8f 93       	push	r24
 272:	9f 93       	push	r25
 274:	af 93       	push	r26
 276:	bf 93       	push	r27
 278:	ef 93       	push	r30
 27a:	ff 93       	push	r31
	if(INT0_fptr != NULL)
 27c:	e0 91 78 00 	lds	r30, 0x0078	; 0x800078 <INT0_fptr>
 280:	f0 91 79 00 	lds	r31, 0x0079	; 0x800079 <INT0_fptr+0x1>
 284:	30 97       	sbiw	r30, 0x00	; 0
 286:	09 f0       	breq	.+2      	; 0x28a <__vector_1+0x30>
	{
		INT0_fptr();
 288:	09 95       	icall
	}
}
 28a:	ff 91       	pop	r31
 28c:	ef 91       	pop	r30
 28e:	bf 91       	pop	r27
 290:	af 91       	pop	r26
 292:	9f 91       	pop	r25
 294:	8f 91       	pop	r24
 296:	7f 91       	pop	r23
 298:	6f 91       	pop	r22
 29a:	5f 91       	pop	r21
 29c:	4f 91       	pop	r20
 29e:	3f 91       	pop	r19
 2a0:	2f 91       	pop	r18
 2a2:	0f 90       	pop	r0
 2a4:	0f be       	out	0x3f, r0	; 63
 2a6:	0f 90       	pop	r0
 2a8:	1f 90       	pop	r1
 2aa:	18 95       	reti

000002ac <__vector_2>:


ISR(INT1_vect)
{
 2ac:	1f 92       	push	r1
 2ae:	0f 92       	push	r0
 2b0:	0f b6       	in	r0, 0x3f	; 63
 2b2:	0f 92       	push	r0
 2b4:	11 24       	eor	r1, r1
 2b6:	2f 93       	push	r18
 2b8:	3f 93       	push	r19
 2ba:	4f 93       	push	r20
 2bc:	5f 93       	push	r21
 2be:	6f 93       	push	r22
 2c0:	7f 93       	push	r23
 2c2:	8f 93       	push	r24
 2c4:	9f 93       	push	r25
 2c6:	af 93       	push	r26
 2c8:	bf 93       	push	r27
 2ca:	ef 93       	push	r30
 2cc:	ff 93       	push	r31
	if(INT1_fptr != NULL)
 2ce:	e0 91 76 00 	lds	r30, 0x0076	; 0x800076 <INT1_fptr>
 2d2:	f0 91 77 00 	lds	r31, 0x0077	; 0x800077 <INT1_fptr+0x1>
 2d6:	30 97       	sbiw	r30, 0x00	; 0
 2d8:	09 f0       	breq	.+2      	; 0x2dc <__vector_2+0x30>
	{
		INT1_fptr();
 2da:	09 95       	icall
	}
}
 2dc:	ff 91       	pop	r31
 2de:	ef 91       	pop	r30
 2e0:	bf 91       	pop	r27
 2e2:	af 91       	pop	r26
 2e4:	9f 91       	pop	r25
 2e6:	8f 91       	pop	r24
 2e8:	7f 91       	pop	r23
 2ea:	6f 91       	pop	r22
 2ec:	5f 91       	pop	r21
 2ee:	4f 91       	pop	r20
 2f0:	3f 91       	pop	r19
 2f2:	2f 91       	pop	r18
 2f4:	0f 90       	pop	r0
 2f6:	0f be       	out	0x3f, r0	; 63
 2f8:	0f 90       	pop	r0
 2fa:	1f 90       	pop	r1
 2fc:	18 95       	reti

000002fe <__vector_3>:


ISR(INT2_vect)
{
 2fe:	1f 92       	push	r1
 300:	0f 92       	push	r0
 302:	0f b6       	in	r0, 0x3f	; 63
 304:	0f 92       	push	r0
 306:	11 24       	eor	r1, r1
 308:	2f 93       	push	r18
 30a:	3f 93       	push	r19
 30c:	4f 93       	push	r20
 30e:	5f 93       	push	r21
 310:	6f 93       	push	r22
 312:	7f 93       	push	r23
 314:	8f 93       	push	r24
 316:	9f 93       	push	r25
 318:	af 93       	push	r26
 31a:	bf 93       	push	r27
 31c:	ef 93       	push	r30
 31e:	ff 93       	push	r31
	if(INT2_fptr != NULL)
 320:	e0 91 74 00 	lds	r30, 0x0074	; 0x800074 <__data_end>
 324:	f0 91 75 00 	lds	r31, 0x0075	; 0x800075 <__data_end+0x1>
 328:	30 97       	sbiw	r30, 0x00	; 0
 32a:	09 f0       	breq	.+2      	; 0x32e <__vector_3+0x30>
	{
		INT2_fptr();
 32c:	09 95       	icall
	}
 32e:	ff 91       	pop	r31
 330:	ef 91       	pop	r30
 332:	bf 91       	pop	r27
 334:	af 91       	pop	r26
 336:	9f 91       	pop	r25
 338:	8f 91       	pop	r24
 33a:	7f 91       	pop	r23
 33c:	6f 91       	pop	r22
 33e:	5f 91       	pop	r21
 340:	4f 91       	pop	r20
 342:	3f 91       	pop	r19
 344:	2f 91       	pop	r18
 346:	0f 90       	pop	r0
 348:	0f be       	out	0x3f, r0	; 63
 34a:	0f 90       	pop	r0
 34c:	1f 90       	pop	r1
 34e:	18 95       	reti

00000350 <__vector_11>:
}



ISR(TIMER0_OVF_vect)
{
 350:	1f 92       	push	r1
 352:	0f 92       	push	r0
 354:	0f b6       	in	r0, 0x3f	; 63
 356:	0f 92       	push	r0
 358:	11 24       	eor	r1, r1
 35a:	2f 93       	push	r18
 35c:	3f 93       	push	r19
 35e:	4f 93       	push	r20
 360:	5f 93       	push	r21
 362:	6f 93       	push	r22
 364:	7f 93       	push	r23
 366:	8f 93       	push	r24
 368:	9f 93       	push	r25
 36a:	af 93       	push	r26
 36c:	bf 93       	push	r27
 36e:	ef 93       	push	r30
 370:	ff 93       	push	r31
	if(tmr0_overFlow_interruptHandler != NULL)
 372:	e0 91 7c 00 	lds	r30, 0x007C	; 0x80007c <tmr0_overFlow_interruptHandler>
 376:	f0 91 7d 00 	lds	r31, 0x007D	; 0x80007d <tmr0_overFlow_interruptHandler+0x1>
 37a:	30 97       	sbiw	r30, 0x00	; 0
 37c:	09 f0       	breq	.+2      	; 0x380 <__vector_11+0x30>
	{
		tmr0_overFlow_interruptHandler();
 37e:	09 95       	icall
	}
}
 380:	ff 91       	pop	r31
 382:	ef 91       	pop	r30
 384:	bf 91       	pop	r27
 386:	af 91       	pop	r26
 388:	9f 91       	pop	r25
 38a:	8f 91       	pop	r24
 38c:	7f 91       	pop	r23
 38e:	6f 91       	pop	r22
 390:	5f 91       	pop	r21
 392:	4f 91       	pop	r20
 394:	3f 91       	pop	r19
 396:	2f 91       	pop	r18
 398:	0f 90       	pop	r0
 39a:	0f be       	out	0x3f, r0	; 63
 39c:	0f 90       	pop	r0
 39e:	1f 90       	pop	r1
 3a0:	18 95       	reti

000003a2 <__vector_10>:

ISR(TIMER0_COMP_vect)
{
 3a2:	1f 92       	push	r1
 3a4:	0f 92       	push	r0
 3a6:	0f b6       	in	r0, 0x3f	; 63
 3a8:	0f 92       	push	r0
 3aa:	11 24       	eor	r1, r1
 3ac:	2f 93       	push	r18
 3ae:	3f 93       	push	r19
 3b0:	4f 93       	push	r20
 3b2:	5f 93       	push	r21
 3b4:	6f 93       	push	r22
 3b6:	7f 93       	push	r23
 3b8:	8f 93       	push	r24
 3ba:	9f 93       	push	r25
 3bc:	af 93       	push	r26
 3be:	bf 93       	push	r27
 3c0:	ef 93       	push	r30
 3c2:	ff 93       	push	r31
	if(tmr0_OC_interruptHandler != NULL)
 3c4:	e0 91 7a 00 	lds	r30, 0x007A	; 0x80007a <tmr0_OC_interruptHandler>
 3c8:	f0 91 7b 00 	lds	r31, 0x007B	; 0x80007b <tmr0_OC_interruptHandler+0x1>
 3cc:	30 97       	sbiw	r30, 0x00	; 0
 3ce:	09 f0       	breq	.+2      	; 0x3d2 <__vector_10+0x30>
	{
		tmr0_OC_interruptHandler();
 3d0:	09 95       	icall
	}
}
 3d2:	ff 91       	pop	r31
 3d4:	ef 91       	pop	r30
 3d6:	bf 91       	pop	r27
 3d8:	af 91       	pop	r26
 3da:	9f 91       	pop	r25
 3dc:	8f 91       	pop	r24
 3de:	7f 91       	pop	r23
 3e0:	6f 91       	pop	r22
 3e2:	5f 91       	pop	r21
 3e4:	4f 91       	pop	r20
 3e6:	3f 91       	pop	r19
 3e8:	2f 91       	pop	r18
 3ea:	0f 90       	pop	r0
 3ec:	0f be       	out	0x3f, r0	; 63
 3ee:	0f 90       	pop	r0
 3f0:	1f 90       	pop	r1
 3f2:	18 95       	reti

000003f4 <_exit>:
 3f4:	f8 94       	cli

000003f6 <__stop_program>:
 3f6:	ff cf       	rjmp	.-2      	; 0x3f6 <__stop_program>
